target datalayout = "e-m:e-p270:32:32-p271:32:32-p272:64:64-i64:64-i128:128-f80:128-n8:16:32:64-S128"
target triple = "x86_64-pc-linux-gnu"

%struct._locked_st = type { ptr, ptr, ptr, i32, i32, i32 }
%struct._strchunk = type { ptr, ptr, ptr, i32, i32, i32, i16, i16, i8, i8, [0 x i8] }
%struct._stritem = type { ptr, ptr, ptr, i32, i32, i32, i16, i16, i8, i8, [0 x %union.anon] }
%union.anon = type { i64 }

@hash = external global ptr, align 8

; Function Attrs: nounwind uwtable
define internal i32 @_slabs_locked_cb(ptr noundef %0) #0 {
  %2 = alloca ptr, align 8
  %3 = alloca ptr, align 8
  %4 = alloca i32, align 4
  %5 = alloca ptr, align 8
  %6 = alloca i32, align 4
  %7 = alloca i8, align 1
  store ptr %0, ptr %2, align 8, !tbaa !22
  call void @llvm.lifetime.start.p0(i64 8, ptr %3) #7
  %8 = load ptr, ptr %2, align 8, !tbaa !22
  store ptr %8, ptr %3, align 8, !tbaa !101
  call void @llvm.lifetime.start.p0(i64 4, ptr %4) #7
  store i32 0, ptr %4, align 4, !tbaa !9
  call void @llvm.lifetime.start.p0(i64 8, ptr %5) #7
  %9 = load ptr, ptr %3, align 8, !tbaa !101
  %10 = getelementptr inbounds nuw %struct._locked_st, ptr %9, i32 0, i32 0
  %11 = load ptr, ptr %10, align 8, !tbaa !76
  store ptr %11, ptr %5, align 8, !tbaa !75
  %12 = load ptr, ptr %5, align 8, !tbaa !75
  %13 = getelementptr inbounds nuw %struct._stritem, ptr %12, i32 0, i32 7
  %14 = load i16, ptr %13, align 2, !tbaa !83
  %15 = zext i16 %14 to i32
  %16 = and i32 %15, 64
  %17 = icmp ne i32 %16, 0
  br i1 %17, label %18, label %27

18:                                               ; preds = %1
  %19 = load ptr, ptr %5, align 8, !tbaa !75
  %20 = load ptr, ptr %3, align 8, !tbaa !101
  %21 = getelementptr inbounds nuw %struct._locked_st, ptr %20, i32 0, i32 1
  store ptr %19, ptr %21, align 8, !tbaa !81
  %22 = load ptr, ptr %3, align 8, !tbaa !101
  %23 = getelementptr inbounds nuw %struct._locked_st, ptr %22, i32 0, i32 1
  %24 = load ptr, ptr %23, align 8, !tbaa !81
  %25 = getelementptr inbounds nuw %struct._strchunk, ptr %24, i32 0, i32 2
  %26 = load ptr, ptr %25, align 8, !tbaa !75
  store ptr %26, ptr %5, align 8, !tbaa !75
  br label %27

27:                                               ; preds = %18, %1
  %28 = load ptr, ptr %5, align 8, !tbaa !75
  %29 = getelementptr inbounds nuw %struct._stritem, ptr %28, i32 0, i32 7
  %30 = load i16, ptr %29, align 2, !tbaa !83
  %31 = zext i16 %30 to i32
  %32 = icmp ne i32 %31, 12
  br i1 %32, label %33, label %116

33:                                               ; preds = %27
  call void @llvm.lifetime.start.p0(i64 4, ptr %6) #7
  store i32 0, ptr %6, align 4, !tbaa !9
  %34 = load ptr, ptr %5, align 8, !tbaa !75
  %35 = getelementptr inbounds nuw %struct._stritem, ptr %34, i32 0, i32 7
  %36 = load i16, ptr %35, align 2, !tbaa !83
  %37 = zext i16 %36 to i32
  %38 = and i32 %37, 4
  %39 = icmp ne i32 %38, 0
  br i1 %39, label %40, label %47

40:                                               ; preds = %33
  %41 = load ptr, ptr %3, align 8, !tbaa !101
  %42 = getelementptr inbounds nuw %struct._locked_st, ptr %41, i32 0, i32 4
  %43 = load i32, ptr %42, align 4, !tbaa !79
  %44 = load ptr, ptr %5, align 8, !tbaa !75
  call void @do_slabs_unlink_free_chunk(i32 noundef %43, ptr noundef %44)
  %45 = load ptr, ptr %5, align 8, !tbaa !75
  %46 = getelementptr inbounds nuw %struct._stritem, ptr %45, i32 0, i32 7
  store i16 0, ptr %46, align 2, !tbaa !83
  store i32 1, ptr %4, align 4, !tbaa !9
  br label %115

47:                                               ; preds = %33
  %48 = load ptr, ptr %5, align 8, !tbaa !75
  %49 = getelementptr inbounds nuw %struct._stritem, ptr %48, i32 0, i32 7
  %50 = load i16, ptr %49, align 2, !tbaa !83
  %51 = zext i16 %50 to i32
  %52 = and i32 %51, 1
  %53 = icmp ne i32 %52, 0
  br i1 %53, label %54, label %113

54:                                               ; preds = %47
  %55 = load ptr, ptr @hash, align 8, !tbaa !22
  %56 = load ptr, ptr %5, align 8, !tbaa !75
  %57 = getelementptr inbounds nuw %struct._stritem, ptr %56, i32 0, i32 10
  %58 = load ptr, ptr %5, align 8, !tbaa !75
  %59 = getelementptr inbounds nuw %struct._stritem, ptr %58, i32 0, i32 7
  %60 = load i16, ptr %59, align 2, !tbaa !83
  %61 = zext i16 %60 to i32
  %62 = and i32 %61, 2
  %63 = icmp ne i32 %62, 0
  %64 = select i1 %63, i64 8, i64 0
  %65 = getelementptr inbounds nuw i8, ptr %57, i64 %64
  %66 = load ptr, ptr %5, align 8, !tbaa !75
  %67 = getelementptr inbounds nuw %struct._stritem, ptr %66, i32 0, i32 9
  %68 = load i8, ptr %67, align 1, !tbaa !74
  %69 = zext i8 %68 to i64
  %70 = call i32 %55(ptr noundef %65, i64 noundef %69)
  %71 = load ptr, ptr %3, align 8, !tbaa !101
  %72 = getelementptr inbounds nuw %struct._locked_st, ptr %71, i32 0, i32 3
  store i32 %70, ptr %72, align 8, !tbaa !85
  %73 = load ptr, ptr %3, align 8, !tbaa !101
  %74 = getelementptr inbounds nuw %struct._locked_st, ptr %73, i32 0, i32 3
  %75 = load i32, ptr %74, align 8, !tbaa !85
  %76 = call ptr @item_trylock(i32 noundef %75)
  %77 = load ptr, ptr %3, align 8, !tbaa !101
  %78 = getelementptr inbounds nuw %struct._locked_st, ptr %77, i32 0, i32 2
  store ptr %76, ptr %78, align 8, !tbaa !86
  %79 = icmp eq ptr %76, null
  br i1 %79, label %80, label %81

80:                                               ; preds = %54
  store i32 7, ptr %4, align 4, !tbaa !9
  br label %112

81:                                               ; preds = %54
  call void @llvm.lifetime.start.p0(i64 1, ptr %7) #7
  %82 = load ptr, ptr %5, align 8, !tbaa !75
  %83 = getelementptr inbounds nuw %struct._stritem, ptr %82, i32 0, i32 7
  %84 = load i16, ptr %83, align 2, !tbaa !83
  %85 = zext i16 %84 to i32
  %86 = and i32 %85, 1
  %87 = icmp ne i32 %86, 0
  %88 = zext i1 %87 to i8
  store i8 %88, ptr %7, align 1, !tbaa !46
  %89 = load ptr, ptr %5, align 8, !tbaa !75
  %90 = getelementptr inbounds nuw %struct._stritem, ptr %89, i32 0, i32 6
  %91 = load i16, ptr %90, align 4, !tbaa !83
  %92 = add i16 %91, 1
  store i16 %92, ptr %90, align 4, !tbaa !83
  %93 = zext i16 %92 to i32
  store i32 %93, ptr %6, align 4, !tbaa !9
  %94 = load i32, ptr %6, align 4, !tbaa !9
  %95 = icmp eq i32 %94, 2
  br i1 %95, label %96, label %102

96:                                               ; preds = %81
  %97 = load i8, ptr %7, align 1, !tbaa !46, !range !35, !noundef !36
  %98 = trunc i8 %97 to i1
  br i1 %98, label %99, label %100

99:                                               ; preds = %96
  store i32 2, ptr %4, align 4, !tbaa !9
  br label %101

100:                                              ; preds = %96
  store i32 4, ptr %4, align 4, !tbaa !9
  br label %101

101:                                              ; preds = %100, %99
  br label %111

102:                                              ; preds = %81
  %103 = load i32, ptr %6, align 4, !tbaa !9
  %104 = icmp sgt i32 %103, 2
  br i1 %104, label %105, label %109

105:                                              ; preds = %102
  %106 = load i8, ptr %7, align 1, !tbaa !46, !range !35, !noundef !36
  %107 = trunc i8 %106 to i1
  br i1 %107, label %108, label %109

108:                                              ; preds = %105
  store i32 5, ptr %4, align 4, !tbaa !9
  br label %110

109:                                              ; preds = %105, %102
  store i32 3, ptr %4, align 4, !tbaa !9
  br label %110

110:                                              ; preds = %109, %108
  br label %111

111:                                              ; preds = %110, %101
  call void @llvm.lifetime.end.p0(i64 1, ptr %7) #7
  br label %112

112:                                              ; preds = %111, %80
  br label %114

113:                                              ; preds = %47
  store i32 6, ptr %4, align 4, !tbaa !9
  br label %114

114:                                              ; preds = %113, %112
  br label %115

115:                                              ; preds = %114, %40
  call void @llvm.lifetime.end.p0(i64 4, ptr %6) #7
  br label %116

116:                                              ; preds = %115, %27
  %117 = load i32, ptr %4, align 4, !tbaa !9
  call void @llvm.lifetime.end.p0(i64 8, ptr %5) #7
  call void @llvm.lifetime.end.p0(i64 4, ptr %4) #7
  call void @llvm.lifetime.end.p0(i64 8, ptr %3) #7
  ret i32 %117
}