; Function Attrs: nounwind uwtable
define internal range(i32 0, 8) i32 @_slabs_locked_cb(ptr noundef captures(none) %0) #0 {
  %2 = load ptr, ptr %0, align 8, !tbaa !71
  %3 = getelementptr inbounds nuw i8, ptr %2, i64 38
  %4 = load i16, ptr %3, align 2, !tbaa !62
  %5 = and i16 %4, 64
  %.not = icmp eq i16 %5, 0
  br i1 %.not, label %10, label %6

6:                                                ; preds = %1
  %7 = getelementptr inbounds nuw i8, ptr %0, i64 8
  store ptr %2, ptr %7, align 8, !tbaa !76
  %8 = getelementptr inbounds nuw i8, ptr %2, i64 16
  %9 = load ptr, ptr %8, align 8, !tbaa !77
  %.phi.trans.insert = getelementptr inbounds nuw i8, ptr %9, i64 38
  %.pre = load i16, ptr %.phi.trans.insert, align 2, !tbaa !62
  br label %10

10:                                               ; preds = %6, %1
  %11 = phi i16 [ %.pre, %6 ], [ %4, %1 ]
  %.024 = phi ptr [ %9, %6 ], [ %2, %1 ]
  %12 = getelementptr inbounds nuw i8, ptr %.024, i64 38
  %13 = zext i16 %11 to i32
  %.not27 = icmp eq i16 %11, 12
  br i1 %.not27, label %46, label %14

14:                                               ; preds = %10
  %15 = and i32 %13, 4
  %.not28 = icmp eq i32 %15, 0
  br i1 %.not28, label %19, label %16

16:                                               ; preds = %14
  %17 = getelementptr inbounds nuw i8, ptr %0, i64 28
  %18 = load i32, ptr %17, align 4, !tbaa !74
  tail call void @do_slabs_unlink_free_chunk(i32 noundef %18, ptr noundef nonnull %.024) #11
  store i16 0, ptr %12, align 2, !tbaa !62
  br label %46

19:                                               ; preds = %14
  %20 = and i32 %13, 1
  %.not29 = icmp eq i32 %20, 0
  br i1 %.not29, label %46, label %21

21:                                               ; preds = %19
  %22 = load ptr, ptr @hash, align 8, !tbaa !94
  %23 = getelementptr inbounds nuw i8, ptr %.024, i64 48
  %24 = shl nuw nsw i32 %13, 2
  %25 = and i32 %24, 8
  %26 = zext nneg i32 %25 to i64
  %27 = getelementptr inbounds nuw i8, ptr %23, i64 %26
  %28 = getelementptr inbounds nuw i8, ptr %.024, i64 41
  %29 = load i8, ptr %28, align 1, !tbaa !70
  %30 = zext i8 %29 to i64
  %31 = tail call i32 %22(ptr noundef nonnull %27, i64 noundef %30) #11
  %32 = getelementptr inbounds nuw i8, ptr %0, i64 24
  store i32 %31, ptr %32, align 8, !tbaa !78
  %33 = tail call ptr @item_trylock(i32 noundef %31) #11
  %34 = getelementptr inbounds nuw i8, ptr %0, i64 16
  store ptr %33, ptr %34, align 8, !tbaa !85
  %35 = icmp eq ptr %33, null
  br i1 %35, label %46, label %36

36:                                               ; preds = %21
  %37 = load i16, ptr %12, align 2, !tbaa !62
  %38 = and i16 %37, 1
  %.not31 = icmp eq i16 %38, 0
  %39 = getelementptr inbounds nuw i8, ptr %.024, i64 36
  %40 = load i16, ptr %39, align 4, !tbaa !62
  %41 = add i16 %40, 1
  store i16 %41, ptr %39, align 4, !tbaa !62
  %42 = icmp eq i16 %41, 2
  br i1 %42, label %43, label %44

43:                                               ; preds = %36
  %. = select i1 %.not31, i32 4, i32 2
  br label %46

44:                                               ; preds = %36
  %45 = icmp ult i16 %41, 3
  %brmerge = select i1 %45, i1 true, i1 %.not31
  %spec.select = select i1 %brmerge, i32 3, i32 5
  br label %46

46:                                               ; preds = %44, %16, %21, %43, %19, %10
  %.0 = phi i32 [ 0, %10 ], [ 1, %16 ], [ 7, %21 ], [ %., %43 ], [ 6, %19 ], [ %spec.select, %44 ]
  ret i32 %.0
}